target datalayout = "e-m:e-p270:32:32-p271:32:32-p272:64:64-i64:64-i128:128-f80:128-n8:16:32:64-S128"
target triple = "x86_64-pc-linux-gnu"

; Function Attrs: inlinehint mustprogress nounwind uwtable
define internal void @_ZL8rvec_decPfPKf(ptr noundef %0, ptr noundef %1) #5 {
  %3 = alloca ptr, align 8
  %4 = alloca ptr, align 8
  %5 = alloca float, align 4
  %6 = alloca float, align 4
  %7 = alloca float, align 4
  store ptr %0, ptr %3, align 8, !tbaa !13
  store ptr %1, ptr %4, align 8, !tbaa !13
  call void @llvm.lifetime.start.p0(i64 4, ptr %5) #7
  call void @llvm.lifetime.start.p0(i64 4, ptr %6) #7
  call void @llvm.lifetime.start.p0(i64 4, ptr %7) #7
  %8 = load ptr, ptr %3, align 8, !tbaa !13
  %9 = getelementptr inbounds float, ptr %8, i64 0
  %10 = load float, ptr %9, align 4, !tbaa !31
  %11 = load ptr, ptr %4, align 8, !tbaa !13
  %12 = getelementptr inbounds float, ptr %11, i64 0
  %13 = load float, ptr %12, align 4, !tbaa !31
  %14 = fsub float %10, %13
  store float %14, ptr %5, align 4, !tbaa !31
  %15 = load ptr, ptr %3, align 8, !tbaa !13
  %16 = getelementptr inbounds float, ptr %15, i64 1
  %17 = load float, ptr %16, align 4, !tbaa !31
  %18 = load ptr, ptr %4, align 8, !tbaa !13
  %19 = getelementptr inbounds float, ptr %18, i64 1
  %20 = load float, ptr %19, align 4, !tbaa !31
  %21 = fsub float %17, %20
  store float %21, ptr %6, align 4, !tbaa !31
  %22 = load ptr, ptr %3, align 8, !tbaa !13
  %23 = getelementptr inbounds float, ptr %22, i64 2
  %24 = load float, ptr %23, align 4, !tbaa !31
  %25 = load ptr, ptr %4, align 8, !tbaa !13
  %26 = getelementptr inbounds float, ptr %25, i64 2
  %27 = load float, ptr %26, align 4, !tbaa !31
  %28 = fsub float %24, %27
  store float %28, ptr %7, align 4, !tbaa !31
  %29 = load float, ptr %5, align 4, !tbaa !31
  %30 = load ptr, ptr %3, align 8, !tbaa !13
  %31 = getelementptr inbounds float, ptr %30, i64 0
  store float %29, ptr %31, align 4, !tbaa !31
  %32 = load float, ptr %6, align 4, !tbaa !31
  %33 = load ptr, ptr %3, align 8, !tbaa !13
  %34 = getelementptr inbounds float, ptr %33, i64 1
  store float %32, ptr %34, align 4, !tbaa !31
  %35 = load float, ptr %7, align 4, !tbaa !31
  %36 = load ptr, ptr %3, align 8, !tbaa !13
  %37 = getelementptr inbounds float, ptr %36, i64 2
  store float %35, ptr %37, align 4, !tbaa !31
  call void @llvm.lifetime.end.p0(i64 4, ptr %7) #7
  call void @llvm.lifetime.end.p0(i64 4, ptr %6) #7
  call void @llvm.lifetime.end.p0(i64 4, ptr %5) #7
  ret void
}

; Function Attrs: mustprogress uwtable
define noundef float @_Z7sub_xcmPA3_fiPKiPK6t_atomPfb(ptr noundef %0, i32 noundef %1, ptr noundef %2, ptr noundef %3, ptr noundef %4, i1 noundef zeroext %5) #0 {
  %7 = alloca ptr, align 8
  %8 = alloca i32, align 4
  %9 = alloca ptr, align 8
  %10 = alloca ptr, align 8
  %11 = alloca ptr, align 8
  %12 = alloca i8, align 1
  %13 = alloca i32, align 4
  %14 = alloca i32, align 4
  %15 = alloca float, align 4
  store ptr %0, ptr %7, align 8, !tbaa !13
  store i32 %1, ptr %8, align 4, !tbaa !4
  store ptr %2, ptr %9, align 8, !tbaa !8
  store ptr %3, ptr %10, align 8, !tbaa !11
  store ptr %4, ptr %11, align 8, !tbaa !13
  %16 = zext i1 %5 to i8
  store i8 %16, ptr %12, align 1, !tbaa !55
  call void @llvm.lifetime.start.p0(i64 4, ptr %13) #7
  call void @llvm.lifetime.start.p0(i64 4, ptr %14) #7
  call void @llvm.lifetime.start.p0(i64 4, ptr %15) #7
  %17 = load ptr, ptr %7, align 8, !tbaa !13
  %18 = load i32, ptr %8, align 4, !tbaa !4
  %19 = load ptr, ptr %9, align 8, !tbaa !8
  %20 = load ptr, ptr %10, align 8, !tbaa !11
  %21 = load ptr, ptr %11, align 8, !tbaa !13
  %22 = load i8, ptr %12, align 1, !tbaa !55, !range !57, !noundef !58
  %23 = trunc i8 %22 to i1
  %24 = call noundef float @_Z8calc_xcmPA3_KfiPKiPK6t_atomPfb(ptr noundef %17, i32 noundef %18, ptr noundef %19, ptr noundef %20, ptr noundef %21, i1 noundef zeroext %23)
  store float %24, ptr %15, align 4, !tbaa !31
  store i32 0, ptr %13, align 4, !tbaa !4
  br label %25

25:                                               ; preds = %48, %6
  %26 = load i32, ptr %13, align 4, !tbaa !4
  %27 = load i32, ptr %8, align 4, !tbaa !4
  %28 = icmp slt i32 %26, %27
  br i1 %28, label %29, label %51

29:                                               ; preds = %25
  %30 = load ptr, ptr %9, align 8, !tbaa !8
  %31 = icmp ne ptr %30, null
  br i1 %31, label %32, label %38

32:                                               ; preds = %29
  %33 = load ptr, ptr %9, align 8, !tbaa !8
  %34 = load i32, ptr %13, align 4, !tbaa !4
  %35 = sext i32 %34 to i64
  %36 = getelementptr inbounds i32, ptr %33, i64 %35
  %37 = load i32, ptr %36, align 4, !tbaa !4
  br label %40

38:                                               ; preds = %29
  %39 = load i32, ptr %13, align 4, !tbaa !4
  br label %40

40:                                               ; preds = %38, %32
  %41 = phi i32 [ %37, %32 ], [ %39, %38 ]
  store i32 %41, ptr %14, align 4, !tbaa !4
  %42 = load ptr, ptr %7, align 8, !tbaa !13
  %43 = load i32, ptr %14, align 4, !tbaa !4
  %44 = sext i32 %43 to i64
  %45 = getelementptr inbounds [3 x float], ptr %42, i64 %44
  %46 = getelementptr inbounds [3 x float], ptr %45, i64 0, i64 0
  %47 = load ptr, ptr %11, align 8, !tbaa !13
  call void @_ZL8rvec_decPfPKf(ptr noundef %46, ptr noundef %47)
  br label %48

48:                                               ; preds = %40
  %49 = load i32, ptr %13, align 4, !tbaa !4
  %50 = add nsw i32 %49, 1
  store i32 %50, ptr %13, align 4, !tbaa !4
  br label %25, !llvm.loop !65

51:                                               ; preds = %25
  %52 = load float, ptr %15, align 4, !tbaa !31
  call void @llvm.lifetime.end.p0(i64 4, ptr %15) #7
  call void @llvm.lifetime.end.p0(i64 4, ptr %14) #7
  call void @llvm.lifetime.end.p0(i64 4, ptr %13) #7
  ret float %52
}