; Function Attrs: mustprogress nofree norecurse nosync nounwind memory(argmem: readwrite) uwtable
define noundef float @_Z7sub_xcmPA3_fiPKiPK6t_atomPfb(ptr noundef captures(none) %0, i32 noundef %1, ptr noundef %2, ptr noundef %3, ptr noundef captures(none) initializes((0, 12)) %4, i1 noundef zeroext %5) local_unnamed_addr #4 {
  %7 = tail call noundef float @_Z8calc_xcmPA3_KfiPKiPK6t_atomPfb(ptr noundef %0, i32 noundef %1, ptr noundef %2, ptr noundef %3, ptr noundef %4, i1 noundef zeroext %5)
  %8 = icmp sgt i32 %1, 0
  br i1 %8, label %.lr.ph, label %._crit_edge

.lr.ph:                                           ; preds = %6
  %.not = icmp eq ptr %2, null
  %9 = getelementptr inbounds nuw i8, ptr %4, i64 4
  %10 = getelementptr inbounds nuw i8, ptr %4, i64 8
  %wide.trip.count23 = zext nneg i32 %1 to i64
  br i1 %.not, label %.lr.ph.split.us, label %.lr.ph.split

.lr.ph.split.us:                                  ; preds = %.lr.ph, %.lr.ph.split.us
  %indvars.iv20 = phi i64 [ %indvars.iv.next21, %.lr.ph.split.us ], [ 0, %.lr.ph ]
  %11 = getelementptr inbounds nuw [3 x float], ptr %0, i64 %indvars.iv20
  %12 = load float, ptr %11, align 4, !tbaa !21
  %13 = load float, ptr %4, align 4, !tbaa !21
  %14 = fsub float %12, %13
  %15 = getelementptr inbounds nuw i8, ptr %11, i64 4
  %16 = load float, ptr %15, align 4, !tbaa !21
  %17 = load float, ptr %9, align 4, !tbaa !21
  %18 = fsub float %16, %17
  %19 = getelementptr inbounds nuw i8, ptr %11, i64 8
  %20 = load float, ptr %19, align 4, !tbaa !21
  %21 = load float, ptr %10, align 4, !tbaa !21
  %22 = fsub float %20, %21
  store float %14, ptr %11, align 4, !tbaa !21
  store float %18, ptr %15, align 4, !tbaa !21
  store float %22, ptr %19, align 4, !tbaa !21
  %indvars.iv.next21 = add nuw nsw i64 %indvars.iv20, 1
  %exitcond24.not = icmp eq i64 %indvars.iv.next21, %wide.trip.count23
  br i1 %exitcond24.not, label %._crit_edge, label %.lr.ph.split.us, !llvm.loop !42

.lr.ph.split:                                     ; preds = %.lr.ph, %.lr.ph.split
  %indvars.iv = phi i64 [ %indvars.iv.next, %.lr.ph.split ], [ 0, %.lr.ph ]
  %23 = getelementptr inbounds nuw i32, ptr %2, i64 %indvars.iv
  %24 = load i32, ptr %23, align 4, !tbaa !14
  %25 = sext i32 %24 to i64
  %26 = getelementptr inbounds [3 x float], ptr %0, i64 %25
  %27 = load float, ptr %26, align 4, !tbaa !21
  %28 = load float, ptr %4, align 4, !tbaa !21
  %29 = fsub float %27, %28
  %30 = getelementptr inbounds nuw i8, ptr %26, i64 4
  %31 = load float, ptr %30, align 4, !tbaa !21
  %32 = load float, ptr %9, align 4, !tbaa !21
  %33 = fsub float %31, %32
  %34 = getelementptr inbounds nuw i8, ptr %26, i64 8
  %35 = load float, ptr %34, align 4, !tbaa !21
  %36 = load float, ptr %10, align 4, !tbaa !21
  %37 = fsub float %35, %36
  store float %29, ptr %26, align 4, !tbaa !21
  store float %33, ptr %30, align 4, !tbaa !21
  store float %37, ptr %34, align 4, !tbaa !21
  %indvars.iv.next = add nuw nsw i64 %indvars.iv, 1
  %exitcond.not = icmp eq i64 %indvars.iv.next, %wide.trip.count23
  br i1 %exitcond.not, label %._crit_edge, label %.lr.ph.split, !llvm.loop !42

._crit_edge:                                      ; preds = %.lr.ph.split, %.lr.ph.split.us, %6
  ret float %7
}